Certificate:
    Data:
        Version: 3 (0x2)
        Serial Number: 1 (0x1)
    Signature Algorithm: sha1WithRSAEncryption
        Issuer: C=US, ST=Unset, L=Unset, O=Unset, CN=www.example.com
        Validity
            Not Before: Dec  2 01:08:09 2014 GMT
            Not After : Nov 29 01:08:09 2024 GMT
        Subject: C=US, ST=Unset, O=Unset, CN=www.example.com
        Subject Public Key Info:
            Public Key Algorithm: rsaEncryption
                Public-Key: (2048 bit)
                Modulus:
                    00:ed:be:08:b6:70:e6:20:4f:85:03:5c:6e:ef:1f:
                    45:c7:18:69:32:85:1e:56:6b:7e:78:a6:18:ad:75:
                    a4:cd:d7:a8:c8:02:75:b4:92:17:3c:4b:9f:18:83:
                    79:00:73:40:02:0d:78:24:aa:52:74:6e:f8:39:48:
                    c8:d4:4d:f6:e0:b1:7e:c7:22:09:40:ec:6e:ff:ca:
                    9e:d5:b1:46:b4:1d:19:0b:7c:56:a5:49:ac:0c:56:
                    2f:5a:d7:4c:53:cc:04:6d:79:87:31:71:2f:bc:c9:
                    e0:78:1a:d9:23:cc:47:d2:ba:43:48:b4:dc:aa:13:
                    d9:b7:d8:0b:32:25:83:a4:3a:d5:e9:11:f3:24:c8:
                    cc:86:12:98:c5:f5:73:1a:c6:b2:50:a9:99:fa:b7:
                    1e:af:94:10:10:2d:dd:e4:1c:cf:23:f8:f5:a0:50:
                    9f:ee:fd:bc:ec:db:6b:a6:df:1d:a0:ab:d2:e8:1a:
                    d3:77:46:eb:31:bb:d9:ee:ef:62:f7:12:96:5e:a3:
                    d4:d0:9b:5d:48:bf:8a:23:ac:13:3d:c5:bd:52:2d:
                    40:a4:f2:03:b0:0b:3a:f8:6d:bb:4d:2e:82:80:be:
                    01:d3:14:56:50:76:91:00:7e:e4:0a:dc:5b:24:df:
                    b6:be:19:cc:1c:b9:9f:bf:bb:dc:1d:cd:c4:79:24:
                    ad:03
                Exponent: 65537 (0x10001)
        X509v3 extensions:
            X509v3 Basic Constraints: 
                CA:FALSE
            X509v3 Subject Key Identifier: 
                6A:01:BF:74:68:1E:F2:69:CA:B4:09:CF:72:85:96:4A:2A:2C:94:29
            X509v3 Authority Key Identifier: 
                keyid:1B:C0:89:88:F5:26:0B:D2:A6:7C:F6:39:0F:F8:D4:23:F3:69:B0:66

    Signature Algorithm: sha1WithRSAEncryption
         9e:fd:bc:df:a0:9d:c6:d7:37:bd:b6:66:f9:f2:44:b3:9c:ce:
         89:55:e8:da:f7:22:94:e9:af:2d:c3:42:69:38:17:30:a1:53:
         5e:02:95:a1:e9:ba:ab:8b:a3:b9:99:7e:28:58:25:dc:16:ea:
         f3:27:ac:f9:78:e0:db:29:e1:3a:c9:cb:5c:4e:2c:02:b7:f4:
         18:aa:d8:ea:74:19:b1:8f:42:59:18:f0:43:8f:cf:ae:80:e6:
         18:d9:a0:71:c9:23:89:3f:9d:e1:e3:30:53:c3:4c:b7:97:2c:
         e4:af:48:ef:5f:b5:6f:71:58:b6:e0:dd:cb:4f:0c:16:8c:5a:
         78:3f:21:c4:44:91:b0:4a:1f:8a:70:59:e9:69:0f:2e:1c:40:
         67:21:62:87:cc:0e:26:d2:8c:5d:d8:4a:d3:d2:8c:7a:d7:3c:
         45:96:6a:36:d5:4b:d1:19:ee:6b:8e:4f:05:d2:34:36:7d:be:
         2f:5e:b5:ba:9f:f0:0e:ed:23:56:00:bc:2f:a5:d4:c7:57:f6:
         71:d0:4d:d0:1c:17:6e:35:49:2a:5a:08:1e:9e:2f:3a:d1:9e:
         2f:ba:57:cd:1b:9b:a0:cd:e8:54:83:12:4b:39:6d:c5:e2:6c:
         d5:2c:b9:c2:7c:4d:98:1b:49:dc:de:9c:1d:44:5f:e5:d3:98:
         62:a4:7a:1a
-----BEGIN CERTIFICATE-----
MIIDZjCCAk6gAwIBAgIBATANBgkqhkiG9w0BAQUFADBXMQswCQYDVQQGEwJVUzEO
MAwGA1UECAwFVW5zZXQxDjAMBgNVBAcMBVVuc2V0MQ4wDAYDVQQKDAVVbnNldDEY
MBYGA1UEAwwPd3d3LmV4YW1wbGUuY29tMB4XDTE0MTIwMjAxMDgwOVoXDTI0MTEy
OTAxMDgwOVowRzELMAkGA1UEBhMCVVMxDjAMBgNVBAgMBVVuc2V0MQ4wDAYDVQQK
DAVVbnNldDEYMBYGA1UEAwwPd3d3LmV4YW1wbGUuY29tMIIBIjANBgkqhkiG9w0B
AQEFAAOCAQ8AMIIBCgKCAQEA7b4ItnDmIE+FA1xu7x9FxxhpMoUeVmt+eKYYrXWk
zdeoyAJ1tJIXPEufGIN5AHNAAg14JKpSdG74OUjI1E324LF+xyIJQOxu/8qe1bFG
tB0ZC3xWpUmsDFYvWtdMU8wEbXmHMXEvvMngeBrZI8xH0rpDSLTcqhPZt9gLMiWD
pDrV6RHzJMjMhhKYxfVzGsayUKmZ+rcer5QQEC3d5BzPI/j1oFCf7v287Ntrpt8d
oKvS6BrTd0brMbvZ7u9i9xKWXqPU0JtdSL+KI6wTPcW9Ui1ApPIDsAs6+G27TS6C
gL4B0xRWUHaRAH7kCtxbJN+2vhnMHLmfv7vcHc3EeSStAwIDAQABo00wSzAJBgNV
HRMEAjAAMB0GA1UdDgQWBBRqAb90aB7yacq0Cc9yhZZKKiyUKTAfBgNVHSMEGDAW
gBQbwImI9SYL0qZ89jkP+NQj82mwZjANBgkqhkiG9w0BAQUFAAOCAQEAnv2836Cd
xtc3vbZm+fJEs5zOiVXo2vcilOmvLcNCaTgXMKFTXgKVoem6q4ujuZl+KFgl3Bbq
8yes+Xjg2ynhOsnLXE4sArf0GKrY6nQZsY9CWRjwQ4/ProDmGNmgcckjiT+d4eMw
U8NMt5cs5K9I71+1b3FYtuDdy08MFoxaeD8hxESRsEofinBZ6WkPLhxAZyFih8wO
JtKMXdhK09KMetc8RZZqNtVL0Rnua45PBdI0Nn2+L161up/wDu0jVgC8L6XUx1f2
cdBN0BwXbjVJKloIHp4vOtGeL7pXzRuboM3oVIMSSzltxeJs1Sy5wnxNmBtJ3N6c
HURf5dOYYqR6Gg==
-----END CERTIFICATE-----
